(dp1
S'blue'
p2
(dp3
S'BL'
p4
I0
sS'LS'
p5
I147
sS'UV'
p6
I255
sS'US'
p7
I255
sS'LV'
p8
I82
sS'UH'
p9
I104
sS'BR'
p10
I1
sS'LH'
p11
I88
sS'CT'
p12
I0
ssS'yellow'
p13
(dp14
S'BL'
p15
I0
sS'UV'
p16
I255
sS'US'
p17
I255
sS'LV'
p18
I137
sS'LS'
p19
I193
sS'BR'
p20
I1
sS'LH'
p21
I0
sS'CT'
p22
I1
sS'UH'
p23
I50
ssS'red'
p24
(dp25
S'BL'
p26
I5
sS'UV'
p27
I255
sS'US'
p28
I255
sS'LV'
p29
I250
sS'UH'
p30
I5
sS'BR'
p31
I1
sS'LH'
p32
I0
sS'CT'
p33
I100
sS'LS'
p34
I114
ss.