(dp1
S'blue'
p2
(dp3
S'LS'
p4
I120
sS'UV'
p5
I255
sS'US'
p6
I255
sS'LV'
p7
I80
sS'UH'
p8
I163
sS'BR'
p9
I1
sS'LH'
p10
I88
sS'CT'
p11
I0
ssS'red'
p12
(dp13
S'UV'
p14
I255
sS'US'
p15
I255
sS'LV'
p16
I130
sS'UH'
p17
I10
sS'BR'
p18
I1
sS'LH'
p19
I0
sS'CT'
p20
I0
sS'LS'
p21
I181
ssS'yellow'
p22
(dp23
S'UV'
p24
I255
sS'US'
p25
I136
sS'LV'
p26
I38
sS'LS'
p27
I62
sS'BR'
p28
I1
sS'LH'
p29
I57
sS'CT'
p30
I100
sS'UH'
p31
I85
ss.