(dp1
S'blue'
p2
(dp3
S'LS'
p4
I147
sS'UV'
p5
I255
sS'US'
p6
I255
sS'LV'
p7
I82
sS'UH'
p8
I104
sS'BR'
p9
I3
sS'LH'
p10
I88
sS'CT'
p11
I20
ssS'yellow'
p12
(dp13
S'UV'
p14
I255
sS'US'
p15
I255
sS'LV'
p16
I90
sS'LS'
p17
I193
sS'BR'
p18
I1
sS'LH'
p19
I0
sS'CT'
p20
I0
sS'UH'
p21
I50
ssS'red'
p22
(dp23
S'UV'
p24
I255
sS'US'
p25
I255
sS'LV'
p26
I130
sS'UH'
p27
I10
sS'BR'
p28
I1
sS'LH'
p29
I0
sS'CT'
p30
I0
sS'LS'
p31
I181
ss.